target datalayout = "e-m:e-p270:32:32-p271:32:32-p272:64:64-i64:64-i128:128-f80:128-n8:16:32:64-S128"
target triple = "x86_64-pc-linux-gnu"

%struct.b2Vec2 = type { float, float }
%struct.b2Transform = type { %struct.b2Vec2, %struct.b2Rot }
%struct.b2Rot = type { float, float }
%struct.b2Filter = type { i64, i64, i32 }
%struct.b2Shape = type { i32, i32, i32, i32, i32, i32, float, float, float, float, float, i32, %struct.b2AABB, %struct.b2AABB, %struct.b2Vec2, i32, %struct.b2Filter, ptr, i32, %union.anon.0, i16, i8, i8, i8, i8 }
%struct.b2AABB = type { %struct.b2Vec2, %struct.b2Vec2 }
%union.anon.0 = type { %struct.b2Polygon }
%struct.b2Polygon = type { [8 x %struct.b2Vec2], [8 x %struct.b2Vec2], %struct.b2Vec2, float, i32 }
%struct.b2Segment = type { %struct.b2Vec2, %struct.b2Vec2 }
%struct.b2ChainSegment = type { %struct.b2Vec2, %struct.b2Segment, %struct.b2Vec2, i32 }

; Function Attrs: nounwind uwtable
define hidden { <2 x float>, <2 x float> } @b2ComputeShapeAABB(ptr noundef %0, <2 x float> %1, <2 x float> %2) #3 {
  %4 = alloca %struct.b2AABB, align 4
  %5 = alloca %struct.b2Transform, align 4
  %6 = alloca ptr, align 8
  %7 = getelementptr inbounds nuw { <2 x float>, <2 x float> }, ptr %5, i32 0, i32 0
  store <2 x float> %1, ptr %7, align 4
  %8 = getelementptr inbounds nuw { <2 x float>, <2 x float> }, ptr %5, i32 0, i32 1
  store <2 x float> %2, ptr %8, align 4
  store ptr %0, ptr %6, align 8, !tbaa !34
  %9 = load ptr, ptr %6, align 8, !tbaa !34
  %10 = getelementptr inbounds nuw %struct.b2Shape, ptr %9, i32 0, i32 5
  %11 = load i32, ptr %10, align 4, !tbaa !201
  switch i32 %11, label %73 [
    i32 1, label %12
    i32 0, label %24
    i32 3, label %36
    i32 2, label %48
    i32 4, label %60
  ]

12:                                               ; preds = %3
  %13 = load ptr, ptr %6, align 8, !tbaa !34
  %14 = getelementptr inbounds nuw %struct.b2Shape, ptr %13, i32 0, i32 19
  %15 = getelementptr inbounds nuw { <2 x float>, <2 x float> }, ptr %5, i32 0, i32 0
  %16 = load <2 x float>, ptr %15, align 4
  %17 = getelementptr inbounds nuw { <2 x float>, <2 x float> }, ptr %5, i32 0, i32 1
  %18 = load <2 x float>, ptr %17, align 4
  %19 = call { <2 x float>, <2 x float> } @b2ComputeCapsuleAABB(ptr noundef %14, <2 x float> %16, <2 x float> %18)
  %20 = getelementptr inbounds nuw { <2 x float>, <2 x float> }, ptr %4, i32 0, i32 0
  %21 = extractvalue { <2 x float>, <2 x float> } %19, 0
  store <2 x float> %21, ptr %20, align 4
  %22 = getelementptr inbounds nuw { <2 x float>, <2 x float> }, ptr %4, i32 0, i32 1
  %23 = extractvalue { <2 x float>, <2 x float> } %19, 1
  store <2 x float> %23, ptr %22, align 4
  br label %78

24:                                               ; preds = %3
  %25 = load ptr, ptr %6, align 8, !tbaa !34
  %26 = getelementptr inbounds nuw %struct.b2Shape, ptr %25, i32 0, i32 19
  %27 = getelementptr inbounds nuw { <2 x float>, <2 x float> }, ptr %5, i32 0, i32 0
  %28 = load <2 x float>, ptr %27, align 4
  %29 = getelementptr inbounds nuw { <2 x float>, <2 x float> }, ptr %5, i32 0, i32 1
  %30 = load <2 x float>, ptr %29, align 4
  %31 = call { <2 x float>, <2 x float> } @b2ComputeCircleAABB(ptr noundef %26, <2 x float> %28, <2 x float> %30)
  %32 = getelementptr inbounds nuw { <2 x float>, <2 x float> }, ptr %4, i32 0, i32 0
  %33 = extractvalue { <2 x float>, <2 x float> } %31, 0
  store <2 x float> %33, ptr %32, align 4
  %34 = getelementptr inbounds nuw { <2 x float>, <2 x float> }, ptr %4, i32 0, i32 1
  %35 = extractvalue { <2 x float>, <2 x float> } %31, 1
  store <2 x float> %35, ptr %34, align 4
  br label %78

36:                                               ; preds = %3
  %37 = load ptr, ptr %6, align 8, !tbaa !34
  %38 = getelementptr inbounds nuw %struct.b2Shape, ptr %37, i32 0, i32 19
  %39 = getelementptr inbounds nuw { <2 x float>, <2 x float> }, ptr %5, i32 0, i32 0
  %40 = load <2 x float>, ptr %39, align 4
  %41 = getelementptr inbounds nuw { <2 x float>, <2 x float> }, ptr %5, i32 0, i32 1
  %42 = load <2 x float>, ptr %41, align 4
  %43 = call { <2 x float>, <2 x float> } @b2ComputePolygonAABB(ptr noundef %38, <2 x float> %40, <2 x float> %42)
  %44 = getelementptr inbounds nuw { <2 x float>, <2 x float> }, ptr %4, i32 0, i32 0
  %45 = extractvalue { <2 x float>, <2 x float> } %43, 0
  store <2 x float> %45, ptr %44, align 4
  %46 = getelementptr inbounds nuw { <2 x float>, <2 x float> }, ptr %4, i32 0, i32 1
  %47 = extractvalue { <2 x float>, <2 x float> } %43, 1
  store <2 x float> %47, ptr %46, align 4
  br label %78

48:                                               ; preds = %3
  %49 = load ptr, ptr %6, align 8, !tbaa !34
  %50 = getelementptr inbounds nuw %struct.b2Shape, ptr %49, i32 0, i32 19
  %51 = getelementptr inbounds nuw { <2 x float>, <2 x float> }, ptr %5, i32 0, i32 0
  %52 = load <2 x float>, ptr %51, align 4
  %53 = getelementptr inbounds nuw { <2 x float>, <2 x float> }, ptr %5, i32 0, i32 1
  %54 = load <2 x float>, ptr %53, align 4
  %55 = call { <2 x float>, <2 x float> } @b2ComputeSegmentAABB(ptr noundef %50, <2 x float> %52, <2 x float> %54)
  %56 = getelementptr inbounds nuw { <2 x float>, <2 x float> }, ptr %4, i32 0, i32 0
  %57 = extractvalue { <2 x float>, <2 x float> } %55, 0
  store <2 x float> %57, ptr %56, align 4
  %58 = getelementptr inbounds nuw { <2 x float>, <2 x float> }, ptr %4, i32 0, i32 1
  %59 = extractvalue { <2 x float>, <2 x float> } %55, 1
  store <2 x float> %59, ptr %58, align 4
  br label %78

60:                                               ; preds = %3
  %61 = load ptr, ptr %6, align 8, !tbaa !34
  %62 = getelementptr inbounds nuw %struct.b2Shape, ptr %61, i32 0, i32 19
  %63 = getelementptr inbounds nuw %struct.b2ChainSegment, ptr %62, i32 0, i32 1
  %64 = getelementptr inbounds nuw { <2 x float>, <2 x float> }, ptr %5, i32 0, i32 0
  %65 = load <2 x float>, ptr %64, align 4
  %66 = getelementptr inbounds nuw { <2 x float>, <2 x float> }, ptr %5, i32 0, i32 1
  %67 = load <2 x float>, ptr %66, align 4
  %68 = call { <2 x float>, <2 x float> } @b2ComputeSegmentAABB(ptr noundef %63, <2 x float> %65, <2 x float> %67)
  %69 = getelementptr inbounds nuw { <2 x float>, <2 x float> }, ptr %4, i32 0, i32 0
  %70 = extractvalue { <2 x float>, <2 x float> } %68, 0
  store <2 x float> %70, ptr %69, align 4
  %71 = getelementptr inbounds nuw { <2 x float>, <2 x float> }, ptr %4, i32 0, i32 1
  %72 = extractvalue { <2 x float>, <2 x float> } %68, 1
  store <2 x float> %72, ptr %71, align 4
  br label %78

73:                                               ; preds = %3
  %74 = getelementptr inbounds nuw %struct.b2AABB, ptr %4, i32 0, i32 0
  %75 = getelementptr inbounds nuw %struct.b2Transform, ptr %5, i32 0, i32 0
  call void @llvm.memcpy.p0.p0.i64(ptr align 4 %74, ptr align 4 %75, i64 8, i1 false), !tbaa.struct !173
  %76 = getelementptr inbounds nuw %struct.b2AABB, ptr %4, i32 0, i32 1
  %77 = getelementptr inbounds nuw %struct.b2Transform, ptr %5, i32 0, i32 0
  call void @llvm.memcpy.p0.p0.i64(ptr align 4 %76, ptr align 4 %77, i64 8, i1 false), !tbaa.struct !173
  br label %78

78:                                               ; preds = %73, %60, %48, %36, %24, %12
  %79 = load { <2 x float>, <2 x float> }, ptr %4, align 4
  ret { <2 x float>, <2 x float> } %79
}