; Function Attrs: nounwind uwtable
define hidden { <2 x float>, <2 x float> } @b2ComputeShapeAABB(ptr noundef %0, <2 x float> %1, <2 x float> %2) local_unnamed_addr #3 {
  %4 = getelementptr inbounds nuw i8, ptr %0, i64 20
  %5 = load i32, ptr %4, align 4, !tbaa !171
  switch i32 %5, label %21 [
    i32 1, label %6
    i32 0, label %9
    i32 3, label %12
    i32 2, label %15
    i32 4, label %18
  ]

6:                                                ; preds = %3
  %7 = getelementptr inbounds nuw i8, ptr %0, i64 132
  %8 = tail call { <2 x float>, <2 x float> } @b2ComputeCapsuleAABB(ptr noundef nonnull %7, <2 x float> %1, <2 x float> %2) #10
  br label %24

9:                                                ; preds = %3
  %10 = getelementptr inbounds nuw i8, ptr %0, i64 132
  %11 = tail call { <2 x float>, <2 x float> } @b2ComputeCircleAABB(ptr noundef nonnull %10, <2 x float> %1, <2 x float> %2) #10
  br label %24

12:                                               ; preds = %3
  %13 = getelementptr inbounds nuw i8, ptr %0, i64 132
  %14 = tail call { <2 x float>, <2 x float> } @b2ComputePolygonAABB(ptr noundef nonnull %13, <2 x float> %1, <2 x float> %2) #10
  br label %24

15:                                               ; preds = %3
  %16 = getelementptr inbounds nuw i8, ptr %0, i64 132
  %17 = tail call { <2 x float>, <2 x float> } @b2ComputeSegmentAABB(ptr noundef nonnull %16, <2 x float> %1, <2 x float> %2) #10
  br label %24

18:                                               ; preds = %3
  %19 = getelementptr inbounds nuw i8, ptr %0, i64 140
  %20 = tail call { <2 x float>, <2 x float> } @b2ComputeSegmentAABB(ptr noundef nonnull %19, <2 x float> %1, <2 x float> %2) #10
  br label %24

21:                                               ; preds = %3
  %22 = insertvalue { <2 x float>, <2 x float> } poison, <2 x float> %1, 0
  %23 = insertvalue { <2 x float>, <2 x float> } %22, <2 x float> %1, 1
  br label %24

24:                                               ; preds = %21, %18, %15, %12, %9, %6
  %.fca.1.insert.merged = phi { <2 x float>, <2 x float> } [ %23, %21 ], [ %20, %18 ], [ %17, %15 ], [ %14, %12 ], [ %11, %9 ], [ %8, %6 ]
  ret { <2 x float>, <2 x float> } %.fca.1.insert.merged
}